; ModuleID = '54/342.c'
source_filename = "54/342.c"
target datalayout = "e-m:e-p270:32:32-p271:32:32-p272:64:64-i64:64-f80:128-n8:16:32:64-S128"
target triple = "x86_64-pc-linux-gnu"

@.str = private unnamed_addr constant [5 x i8] c"%d%d\00", align 1
@.str.1 = private unnamed_addr constant [3 x i8] c"%d\00", align 1

; Function Attrs: noinline nounwind uwtable
define dso_local void @main() #0 {
  %1 = alloca i32, align 4
  %2 = alloca i32, align 4
  %3 = alloca i32, align 4
  %4 = alloca i32, align 4
  %5 = alloca i32, align 4
  %6 = alloca i32, align 4
  %7 = alloca i32, align 4
  %8 = call i32 (i8*, ...) @__isoc99_scanf(i8* getelementptr inbounds ([5 x i8], [5 x i8]* @.str, i64 0, i64 0), i32* %1, i32* %2)
  store i32 1, i32* %6, align 4
  br label %9

9:                                                ; preds = %49, %0
  %10 = load i32, i32* %6, align 4
  store i32 %10, i32* %4, align 4
  store i32 1, i32* %7, align 4
  br label %11

11:                                               ; preds = %40, %9
  %12 = load i32, i32* %1, align 4
  %13 = icmp sle i32 1, %12
  br i1 %13, label %14, label %43

14:                                               ; preds = %11
  %15 = load i32, i32* %4, align 4
  %16 = load i32, i32* %1, align 4
  %17 = mul nsw i32 %15, %16
  %18 = load i32, i32* %2, align 4
  %19 = add nsw i32 %17, %18
  %20 = load i32, i32* %1, align 4
  %21 = sub nsw i32 %20, 1
  %22 = srem i32 %19, %21
  store i32 %22, i32* %5, align 4
  %23 = load i32, i32* %5, align 4
  %24 = icmp eq i32 %23, 0
  br i1 %24, label %25, label %38

25:                                               ; preds = %14
  %26 = load i32, i32* %7, align 4
  %27 = load i32, i32* %1, align 4
  %28 = icmp slt i32 %26, %27
  br i1 %28, label %29, label %38

29:                                               ; preds = %25
  %30 = load i32, i32* %4, align 4
  %31 = load i32, i32* %1, align 4
  %32 = mul nsw i32 %30, %31
  %33 = load i32, i32* %2, align 4
  %34 = add nsw i32 %32, %33
  %35 = load i32, i32* %1, align 4
  %36 = sub nsw i32 %35, 1
  %37 = sdiv i32 %34, %36
  store i32 %37, i32* %4, align 4
  br label %39

38:                                               ; preds = %25, %14
  br label %43

39:                                               ; preds = %29
  br label %40

40:                                               ; preds = %39
  %41 = load i32, i32* %7, align 4
  %42 = add nsw i32 %41, 1
  store i32 %42, i32* %7, align 4
  br label %11

43:                                               ; preds = %38, %11
  %44 = load i32, i32* %7, align 4
  %45 = load i32, i32* %1, align 4
  %46 = icmp eq i32 %44, %45
  br i1 %46, label %47, label %48

47:                                               ; preds = %43
  br label %52

48:                                               ; preds = %43
  br label %49

49:                                               ; preds = %48
  %50 = load i32, i32* %6, align 4
  %51 = add nsw i32 %50, 1
  store i32 %51, i32* %6, align 4
  br label %9

52:                                               ; preds = %47
  %53 = load i32, i32* %4, align 4
  %54 = load i32, i32* %1, align 4
  %55 = mul nsw i32 %53, %54
  %56 = load i32, i32* %2, align 4
  %57 = add nsw i32 %55, %56
  store i32 %57, i32* %3, align 4
  %58 = load i32, i32* %3, align 4
  %59 = call i32 (i8*, ...) @printf(i8* getelementptr inbounds ([3 x i8], [3 x i8]* @.str.1, i64 0, i64 0), i32 %58)
  ret void
}

declare dso_local i32 @__isoc99_scanf(i8*, ...) #1

declare dso_local i32 @printf(i8*, ...) #1


!llvm.module.flags = !{!0}
!llvm.ident = !{!1}

!0 = !{i32 1, !"wchar_size", i32 4}
!1 = !{!"clang version 10.0.0-4ubuntu1 "}
