; ModuleID = 'source-C-CXX/53/342.c'
source_filename = "source-C-CXX/53/342.c"
target datalayout = "e-m:e-p270:32:32-p271:32:32-p272:64:64-i64:64-f80:128-n8:16:32:64-S128"
target triple = "x86_64-pc-linux-gnu"

@.str = private unnamed_addr constant [5 x i8] c"%d%d\00", align 1
@.str.1 = private unnamed_addr constant [3 x i8] c"%d\00", align 1

; Function Attrs: nofree nounwind sspstrong uwtable
define dso_local void @main() local_unnamed_addr #0 {
  %1 = alloca i32, align 4
  %2 = alloca i32, align 4
  %3 = bitcast i32* %1 to i8*
  call void @llvm.lifetime.start.p0i8(i64 4, i8* nonnull %3) #3
  %4 = bitcast i32* %2 to i8*
  call void @llvm.lifetime.start.p0i8(i64 4, i8* nonnull %4) #3
  %5 = call i32 (i8*, ...) @__isoc99_scanf(i8* getelementptr inbounds ([5 x i8], [5 x i8]* @.str, i64 0, i64 0), i32* nonnull %1, i32* nonnull %2)
  %6 = load i32, i32* %1, align 4, !tbaa !5
  %7 = icmp sgt i32 %6, 0
  %8 = load i32, i32* %2, align 4
  %9 = add nsw i32 %6, -1
  br i1 %7, label %10, label %34

10:                                               ; preds = %0
  %11 = icmp eq i32 %6, 1
  br i1 %11, label %35, label %12

12:                                               ; preds = %10, %29
  %13 = phi i32 [ %33, %29 ], [ 1, %10 ]
  %14 = mul nsw i32 %6, %13
  %15 = add nsw i32 %8, %14
  %16 = srem i32 %15, %9
  %17 = icmp eq i32 %16, 0
  br i1 %17, label %18, label %29

18:                                               ; preds = %12, %18
  %19 = phi i32 [ %24, %18 ], [ %15, %12 ]
  %20 = phi i32 [ %22, %18 ], [ 1, %12 ]
  %21 = sdiv i32 %19, %9
  %22 = add nuw nsw i32 %20, 1
  %23 = mul nsw i32 %6, %21
  %24 = add nsw i32 %8, %23
  %25 = srem i32 %24, %9
  %26 = icmp eq i32 %25, 0
  %27 = icmp slt i32 %22, %6
  %28 = select i1 %26, i1 %27, i1 false
  br i1 %28, label %18, label %29

29:                                               ; preds = %18, %12
  %30 = phi i32 [ %13, %12 ], [ %21, %18 ]
  %31 = phi i32 [ 1, %12 ], [ %22, %18 ]
  %32 = icmp eq i32 %31, %6
  %33 = add nuw nsw i32 %13, 1
  br i1 %32, label %35, label %12

34:                                               ; preds = %0, %34
  br label %34

35:                                               ; preds = %29, %10
  %36 = phi i32 [ 1, %10 ], [ %30, %29 ]
  %37 = mul nsw i32 %6, %36
  %38 = add nsw i32 %8, %37
  %39 = call i32 (i8*, ...) @printf(i8* nonnull dereferenceable(1) getelementptr inbounds ([3 x i8], [3 x i8]* @.str.1, i64 0, i64 0), i32 %38)
  call void @llvm.lifetime.end.p0i8(i64 4, i8* nonnull %4) #3
  call void @llvm.lifetime.end.p0i8(i64 4, i8* nonnull %3) #3
  ret void
}

; Function Attrs: argmemonly mustprogress nofree nosync nounwind willreturn
declare void @llvm.lifetime.start.p0i8(i64 immarg, i8* nocapture) #1

; Function Attrs: nofree nounwind
declare noundef i32 @__isoc99_scanf(i8* nocapture noundef readonly, ...) local_unnamed_addr #2

; Function Attrs: nofree nounwind
declare noundef i32 @printf(i8* nocapture noundef readonly, ...) local_unnamed_addr #2

; Function Attrs: argmemonly mustprogress nofree nosync nounwind willreturn
declare void @llvm.lifetime.end.p0i8(i64 immarg, i8* nocapture) #1


!llvm.module.flags = !{!0, !1, !2, !3}
!llvm.ident = !{!4}

!0 = !{i32 1, !"wchar_size", i32 4}
!1 = !{i32 7, !"PIC Level", i32 2}
!2 = !{i32 7, !"PIE Level", i32 2}
!3 = !{i32 7, !"uwtable", i32 1}
!4 = !{!"clang version 13.0.0"}
!5 = !{!6, !6, i64 0}
!6 = !{!"int", !7, i64 0}
!7 = !{!"omnipotent char", !8, i64 0}
!8 = !{!"Simple C/C++ TBAA"}
